GAS LISTING /tmp/ccUgdhPb.s 			page 1


   1              		.file	"sha256.c"
   2              		.option nopic
   3              		.attribute arch, "rv64i2p0_m2p0_a2p0_f2p0_d2p0_c2p0"
   4              		.attribute unaligned_access, 0
   5              		.attribute stack_align, 16
   6              		.text
   7              	.Ltext0:
   8              		.cfi_sections	.debug_frame
   9              		.section	.rodata
  10              		.align	3
  11              		.type	k, @object
  12              		.size	k, 256
  13              	k:
  14 0000 982F8A42 		.word	1116352408
  15 0004 91443771 		.word	1899447441
  16 0008 CFFBC0B5 		.word	-1245643825
  17 000c A5DBB5E9 		.word	-373957723
  18 0010 5BC25639 		.word	961987163
  19 0014 F111F159 		.word	1508970993
  20 0018 A4823F92 		.word	-1841331548
  21 001c D55E1CAB 		.word	-1424204075
  22 0020 98AA07D8 		.word	-670586216
  23 0024 015B8312 		.word	310598401
  24 0028 BE853124 		.word	607225278
  25 002c C37D0C55 		.word	1426881987
  26 0030 745DBE72 		.word	1925078388
  27 0034 FEB1DE80 		.word	-2132889090
  28 0038 A706DC9B 		.word	-1680079193
  29 003c 74F19BC1 		.word	-1046744716
  30 0040 C1699BE4 		.word	-459576895
  31 0044 8647BEEF 		.word	-272742522
  32 0048 C69DC10F 		.word	264347078
  33 004c CCA10C24 		.word	604807628
  34 0050 6F2CE92D 		.word	770255983
  35 0054 AA84744A 		.word	1249150122
  36 0058 DCA9B05C 		.word	1555081692
  37 005c DA88F976 		.word	1996064986
  38 0060 52513E98 		.word	-1740746414
  39 0064 6DC631A8 		.word	-1473132947
  40 0068 C82703B0 		.word	-1341970488
  41 006c C77F59BF 		.word	-1084653625
  42 0070 F30BE0C6 		.word	-958395405
  43 0074 4791A7D5 		.word	-710438585
  44 0078 5163CA06 		.word	113926993
  45 007c 67292914 		.word	338241895
  46 0080 850AB727 		.word	666307205
  47 0084 38211B2E 		.word	773529912
  48 0088 FC6D2C4D 		.word	1294757372
  49 008c 130D3853 		.word	1396182291
  50 0090 54730A65 		.word	1695183700
  51 0094 BB0A6A76 		.word	1986661051
  52 0098 2EC9C281 		.word	-2117940946
  53 009c 852C7292 		.word	-1838011259
  54 00a0 A1E8BFA2 		.word	-1564481375
  55 00a4 4B661AA8 		.word	-1474664885
  56 00a8 708B4BC2 		.word	-1035236496
  57 00ac A3516CC7 		.word	-949202525
GAS LISTING /tmp/ccUgdhPb.s 			page 2


  58 00b0 19E892D1 		.word	-778901479
  59 00b4 240699D6 		.word	-694614492
  60 00b8 85350EF4 		.word	-200395387
  61 00bc 70A06A10 		.word	275423344
  62 00c0 16C1A419 		.word	430227734
  63 00c4 086C371E 		.word	506948616
  64 00c8 4C774827 		.word	659060556
  65 00cc B5BCB034 		.word	883997877
  66 00d0 B30C1C39 		.word	958139571
  67 00d4 4AAAD84E 		.word	1322822218
  68 00d8 4FCA9C5B 		.word	1537002063
  69 00dc F36F2E68 		.word	1747873779
  70 00e0 EE828F74 		.word	1955562222
  71 00e4 6F63A578 		.word	2024104815
  72 00e8 1478C884 		.word	-2067236844
  73 00ec 0802C78C 		.word	-1933114872
  74 00f0 FAFFBE90 		.word	-1866530822
  75 00f4 EB6C50A4 		.word	-1538233109
  76 00f8 F7A3F9BE 		.word	-1090935817
  77 00fc F27871C6 		.word	-965641998
  78              		.text
  79              		.align	1
  80              		.globl	sha256_transform
  81              		.type	sha256_transform, @function
  82              	sha256_transform:
  83              	.LFB4:
  84              		.file 1 "sha256.c"
   1:sha256.c      **** /*************************** HEADER FILES ***************************/
   2:sha256.c      **** #include <stddef.h>
   3:sha256.c      **** #include <stdlib.h>
   4:sha256.c      **** #include <memory.h>
   5:sha256.c      **** #include <stdio.h>
   6:sha256.c      **** 
   7:sha256.c      **** /**************************** DATA TYPES ****************************/
   8:sha256.c      **** typedef unsigned char BYTE;             // 8-bit byte
   9:sha256.c      **** typedef unsigned int  WORD;             // 32-bit word
  10:sha256.c      **** 
  11:sha256.c      **** typedef struct {
  12:sha256.c      **** 	BYTE data[64];
  13:sha256.c      **** 	WORD datalen;
  14:sha256.c      **** 	unsigned long long bitlen;
  15:sha256.c      **** 	WORD state[8];
  16:sha256.c      **** } SHA256_CTX;
  17:sha256.c      **** 
  18:sha256.c      **** 
  19:sha256.c      **** /****************************** MACROS ******************************/
  20:sha256.c      **** #define SHA256_BLOCK_SIZE 32            // SHA256 outputs a 32 byte digest
  21:sha256.c      **** #define INPUT_SIZE 256            		// SHA256 input 256 string
  22:sha256.c      **** 
  23:sha256.c      **** #define ROTLEFT(a,b) (((a) << (b)) | ((a) >> (32-(b))))
  24:sha256.c      **** #define ROTRIGHT(a,b) (((a) >> (b)) | ((a) << (32-(b))))
  25:sha256.c      **** #define NOTAND(a,b) (~(a) & (b))
  26:sha256.c      **** 
  27:sha256.c      **** #define CH(x,y,z) (((x) & (y)) ^ NOTAND(x,z))
  28:sha256.c      **** #define MAJ(x,y,z) (((x) & (y)) ^ ((x) & (z)) ^ ((y) & (z)))
  29:sha256.c      **** #define EP0(x) (ROTRIGHT(x,2) ^ ROTRIGHT(x,13) ^ ROTRIGHT(x,22))
  30:sha256.c      **** #define EP1(x) (ROTLEFT(x,7) ^ ROTLEFT(x,21) ^ ROTLEFT(x,26))
GAS LISTING /tmp/ccUgdhPb.s 			page 3


  31:sha256.c      **** #define SIG0(x) (ROTRIGHT(x,7) ^ ROTRIGHT(x,18) ^ ((x) >> 3))
  32:sha256.c      **** #define SIG1(x) (ROTLEFT(x,13) ^ ROTLEFT(x,15) ^ ((x) >> 10))
  33:sha256.c      **** 
  34:sha256.c      **** /**************************** VARIABLES *****************************/
  35:sha256.c      **** static const WORD k[64] = {
  36:sha256.c      **** 	0x428a2f98,0x71374491,0xb5c0fbcf,0xe9b5dba5,0x3956c25b,0x59f111f1,0x923f82a4,0xab1c5ed5,
  37:sha256.c      **** 	0xd807aa98,0x12835b01,0x243185be,0x550c7dc3,0x72be5d74,0x80deb1fe,0x9bdc06a7,0xc19bf174,
  38:sha256.c      **** 	0xe49b69c1,0xefbe4786,0x0fc19dc6,0x240ca1cc,0x2de92c6f,0x4a7484aa,0x5cb0a9dc,0x76f988da,
  39:sha256.c      **** 	0x983e5152,0xa831c66d,0xb00327c8,0xbf597fc7,0xc6e00bf3,0xd5a79147,0x06ca6351,0x14292967,
  40:sha256.c      **** 	0x27b70a85,0x2e1b2138,0x4d2c6dfc,0x53380d13,0x650a7354,0x766a0abb,0x81c2c92e,0x92722c85,
  41:sha256.c      **** 	0xa2bfe8a1,0xa81a664b,0xc24b8b70,0xc76c51a3,0xd192e819,0xd6990624,0xf40e3585,0x106aa070,
  42:sha256.c      **** 	0x19a4c116,0x1e376c08,0x2748774c,0x34b0bcb5,0x391c0cb3,0x4ed8aa4a,0x5b9cca4f,0x682e6ff3,
  43:sha256.c      **** 	0x748f82ee,0x78a5636f,0x84c87814,0x8cc70208,0x90befffa,0xa4506ceb,0xbef9a3f7,0xc67178f2
  44:sha256.c      **** };
  45:sha256.c      **** 
  46:sha256.c      **** /*********************** FUNCTION DEFINITIONS ***********************/
  47:sha256.c      **** void sha256_transform(SHA256_CTX *ctx, const BYTE data[])
  48:sha256.c      **** {
  85              		.loc 1 48 1
  86              		.cfi_startproc
  87 0000 4D71     		addi	sp,sp,-336
  88              		.cfi_def_cfa_offset 336
  89 0002 A2E6     		sd	s0,328(sp)
  90              		.cfi_offset 8, -8
  91 0004 800A     		addi	s0,sp,336
  92              		.cfi_def_cfa 8, 0
  93 0006 233CA4EA 		sd	a0,-328(s0)
  94 000a 2338B4EA 		sd	a1,-336(s0)
  49:sha256.c      **** 	WORD a, b, c, d, e, f, g, h, i, j, t1, t2, m[64];
  50:sha256.c      **** 
  51:sha256.c      **** 	for (i = 0, j = 0; i < 16; ++i, j += 4)
  95              		.loc 1 51 9
  96 000e 232604FC 		sw	zero,-52(s0)
  97              		.loc 1 51 16
  98 0012 232404FC 		sw	zero,-56(s0)
  99              		.loc 1 51 2
 100 0016 5DA0     		j	.L2
 101              	.L3:
  52:sha256.c      **** 		m[i] = (data[j] << 24) | (data[j + 1] << 16) | (data[j + 2] << 8) | (data[j + 3]);
 102              		.loc 1 52 15 discriminator 3
 103 0018 836784FC 		lwu	a5,-56(s0)
 104 001c 033704EB 		ld	a4,-336(s0)
 105 0020 BA97     		add	a5,a4,a5
 106 0022 83C70700 		lbu	a5,0(a5)
 107 0026 8127     		sext.w	a5,a5
 108              		.loc 1 52 19 discriminator 3
 109 0028 9B978701 		slliw	a5,a5,24
 110 002c 1B870700 		sext.w	a4,a5
 111              		.loc 1 52 36 discriminator 3
 112 0030 832784FC 		lw	a5,-56(s0)
 113 0034 8527     		addiw	a5,a5,1
 114 0036 8127     		sext.w	a5,a5
 115 0038 8217     		slli	a5,a5,32
 116 003a 8193     		srli	a5,a5,32
 117              		.loc 1 52 33 discriminator 3
 118 003c 833604EB 		ld	a3,-336(s0)
 119 0040 B697     		add	a5,a3,a5
GAS LISTING /tmp/ccUgdhPb.s 			page 4


 120 0042 83C70700 		lbu	a5,0(a5)
 121 0046 8127     		sext.w	a5,a5
 122              		.loc 1 52 41 discriminator 3
 123 0048 9B970701 		slliw	a5,a5,16
 124 004c 8127     		sext.w	a5,a5
 125              		.loc 1 52 26 discriminator 3
 126 004e D98F     		or	a5,a4,a5
 127 0050 1B870700 		sext.w	a4,a5
 128              		.loc 1 52 58 discriminator 3
 129 0054 832784FC 		lw	a5,-56(s0)
 130 0058 8927     		addiw	a5,a5,2
 131 005a 8127     		sext.w	a5,a5
 132 005c 8217     		slli	a5,a5,32
 133 005e 8193     		srli	a5,a5,32
 134              		.loc 1 52 55 discriminator 3
 135 0060 833604EB 		ld	a3,-336(s0)
 136 0064 B697     		add	a5,a3,a5
 137 0066 83C70700 		lbu	a5,0(a5)
 138 006a 8127     		sext.w	a5,a5
 139              		.loc 1 52 63 discriminator 3
 140 006c 9B978700 		slliw	a5,a5,8
 141 0070 8127     		sext.w	a5,a5
 142              		.loc 1 52 48 discriminator 3
 143 0072 D98F     		or	a5,a4,a5
 144 0074 1B870700 		sext.w	a4,a5
 145              		.loc 1 52 79 discriminator 3
 146 0078 832784FC 		lw	a5,-56(s0)
 147 007c 8D27     		addiw	a5,a5,3
 148 007e 8127     		sext.w	a5,a5
 149 0080 8217     		slli	a5,a5,32
 150 0082 8193     		srli	a5,a5,32
 151              		.loc 1 52 76 discriminator 3
 152 0084 833604EB 		ld	a3,-336(s0)
 153 0088 B697     		add	a5,a3,a5
 154 008a 83C70700 		lbu	a5,0(a5)
 155 008e 8127     		sext.w	a5,a5
 156              		.loc 1 52 69 discriminator 3
 157 0090 D98F     		or	a5,a4,a5
 158 0092 8127     		sext.w	a5,a5
 159 0094 1B870700 		sext.w	a4,a5
 160              		.loc 1 52 8 discriminator 3
 161 0098 8367C4FC 		lwu	a5,-52(s0)
 162 009c 8A07     		slli	a5,a5,2
 163 009e 930604FF 		addi	a3,s0,-16
 164 00a2 B697     		add	a5,a3,a5
 165 00a4 23A8E7EC 		sw	a4,-304(a5)
  51:sha256.c      **** 		m[i] = (data[j] << 24) | (data[j + 1] << 16) | (data[j + 2] << 8) | (data[j + 3]);
 166              		.loc 1 51 29 discriminator 3
 167 00a8 8327C4FC 		lw	a5,-52(s0)
 168 00ac 8527     		addiw	a5,a5,1
 169 00ae 2326F4FC 		sw	a5,-52(s0)
  51:sha256.c      **** 		m[i] = (data[j] << 24) | (data[j + 1] << 16) | (data[j + 2] << 8) | (data[j + 3]);
 170              		.loc 1 51 36 discriminator 3
 171 00b2 832784FC 		lw	a5,-56(s0)
 172 00b6 9127     		addiw	a5,a5,4
 173 00b8 2324F4FC 		sw	a5,-56(s0)
 174              	.L2:
GAS LISTING /tmp/ccUgdhPb.s 			page 5


  51:sha256.c      **** 		m[i] = (data[j] << 24) | (data[j + 1] << 16) | (data[j + 2] << 8) | (data[j + 3]);
 175              		.loc 1 51 2 discriminator 1
 176 00bc 8327C4FC 		lw	a5,-52(s0)
 177 00c0 1B870700 		sext.w	a4,a5
 178 00c4 BD47     		li	a5,15
 179 00c6 E3F9E7F4 		bleu	a4,a5,.L3
  53:sha256.c      **** 	for ( ; i < 64; ++i)
 180              		.loc 1 53 2
 181 00ca A1A2     		j	.L4
 182              	.L5:
  54:sha256.c      **** 		m[i] = SIG1(m[i - 2]) + m[i - 7] + SIG0(m[i - 15]) + m[i - 16];
 183              		.loc 1 54 10 discriminator 2
 184 00cc 8327C4FC 		lw	a5,-52(s0)
 185 00d0 F937     		addiw	a5,a5,-2
 186 00d2 8127     		sext.w	a5,a5
 187 00d4 8217     		slli	a5,a5,32
 188 00d6 8193     		srli	a5,a5,32
 189 00d8 8A07     		slli	a5,a5,2
 190 00da 130704FF 		addi	a4,s0,-16
 191 00de BA97     		add	a5,a4,a5
 192 00e0 83A707ED 		lw	a5,-304(a5)
 193 00e4 1B97D700 		slliw	a4,a5,13
 194 00e8 9BD73701 		srliw	a5,a5,19
 195 00ec D98F     		or	a5,a4,a5
 196 00ee 9B860700 		sext.w	a3,a5
 197 00f2 8327C4FC 		lw	a5,-52(s0)
 198 00f6 F937     		addiw	a5,a5,-2
 199 00f8 8127     		sext.w	a5,a5
 200 00fa 8217     		slli	a5,a5,32
 201 00fc 8193     		srli	a5,a5,32
 202 00fe 8A07     		slli	a5,a5,2
 203 0100 130704FF 		addi	a4,s0,-16
 204 0104 BA97     		add	a5,a4,a5
 205 0106 83A707ED 		lw	a5,-304(a5)
 206 010a 1B97F700 		slliw	a4,a5,15
 207 010e 9BD71701 		srliw	a5,a5,17
 208 0112 D98F     		or	a5,a4,a5
 209 0114 8127     		sext.w	a5,a5
 210 0116 3687     		mv	a4,a3
 211 0118 B98F     		xor	a5,a4,a5
 212 011a 1B870700 		sext.w	a4,a5
 213 011e 8327C4FC 		lw	a5,-52(s0)
 214 0122 F937     		addiw	a5,a5,-2
 215 0124 8127     		sext.w	a5,a5
 216 0126 8217     		slli	a5,a5,32
 217 0128 8193     		srli	a5,a5,32
 218 012a 8A07     		slli	a5,a5,2
 219 012c 930604FF 		addi	a3,s0,-16
 220 0130 B697     		add	a5,a3,a5
 221 0132 83A707ED 		lw	a5,-304(a5)
 222 0136 9BD7A700 		srliw	a5,a5,10
 223 013a 8127     		sext.w	a5,a5
 224 013c B98F     		xor	a5,a4,a5
 225 013e 1B870700 		sext.w	a4,a5
 226              		.loc 1 54 31 discriminator 2
 227 0142 8327C4FC 		lw	a5,-52(s0)
 228 0146 E537     		addiw	a5,a5,-7
GAS LISTING /tmp/ccUgdhPb.s 			page 6


 229 0148 8127     		sext.w	a5,a5
 230              		.loc 1 54 28 discriminator 2
 231 014a 8217     		slli	a5,a5,32
 232 014c 8193     		srli	a5,a5,32
 233 014e 8A07     		slli	a5,a5,2
 234 0150 930604FF 		addi	a3,s0,-16
 235 0154 B697     		add	a5,a3,a5
 236 0156 83A707ED 		lw	a5,-304(a5)
 237              		.loc 1 54 25 discriminator 2
 238 015a B99F     		addw	a5,a4,a5
 239 015c 1B870700 		sext.w	a4,a5
 240              		.loc 1 54 38 discriminator 2
 241 0160 8327C4FC 		lw	a5,-52(s0)
 242 0164 C537     		addiw	a5,a5,-15
 243 0166 8127     		sext.w	a5,a5
 244 0168 8217     		slli	a5,a5,32
 245 016a 8193     		srli	a5,a5,32
 246 016c 8A07     		slli	a5,a5,2
 247 016e 930604FF 		addi	a3,s0,-16
 248 0172 B697     		add	a5,a3,a5
 249 0174 83A707ED 		lw	a5,-304(a5)
 250 0178 9BD67700 		srliw	a3,a5,7
 251 017c 9B979701 		slliw	a5,a5,25
 252 0180 D58F     		or	a5,a3,a5
 253 0182 1B860700 		sext.w	a2,a5
 254 0186 8327C4FC 		lw	a5,-52(s0)
 255 018a C537     		addiw	a5,a5,-15
 256 018c 8127     		sext.w	a5,a5
 257 018e 8217     		slli	a5,a5,32
 258 0190 8193     		srli	a5,a5,32
 259 0192 8A07     		slli	a5,a5,2
 260 0194 930604FF 		addi	a3,s0,-16
 261 0198 B697     		add	a5,a3,a5
 262 019a 83A707ED 		lw	a5,-304(a5)
 263 019e 9B96E700 		slliw	a3,a5,14
 264 01a2 9BD72701 		srliw	a5,a5,18
 265 01a6 D58F     		or	a5,a3,a5
 266 01a8 8127     		sext.w	a5,a5
 267 01aa B286     		mv	a3,a2
 268 01ac B58F     		xor	a5,a3,a5
 269 01ae 9B860700 		sext.w	a3,a5
 270 01b2 8327C4FC 		lw	a5,-52(s0)
 271 01b6 C537     		addiw	a5,a5,-15
 272 01b8 8127     		sext.w	a5,a5
 273 01ba 8217     		slli	a5,a5,32
 274 01bc 8193     		srli	a5,a5,32
 275 01be 8A07     		slli	a5,a5,2
 276 01c0 130604FF 		addi	a2,s0,-16
 277 01c4 B297     		add	a5,a2,a5
 278 01c6 83A707ED 		lw	a5,-304(a5)
 279 01ca 9BD73700 		srliw	a5,a5,3
 280 01ce 8127     		sext.w	a5,a5
 281 01d0 B58F     		xor	a5,a3,a5
 282 01d2 8127     		sext.w	a5,a5
 283              		.loc 1 54 36 discriminator 2
 284 01d4 B99F     		addw	a5,a4,a5
 285 01d6 1B870700 		sext.w	a4,a5
GAS LISTING /tmp/ccUgdhPb.s 			page 7


 286              		.loc 1 54 60 discriminator 2
 287 01da 8327C4FC 		lw	a5,-52(s0)
 288 01de C137     		addiw	a5,a5,-16
 289 01e0 8127     		sext.w	a5,a5
 290              		.loc 1 54 57 discriminator 2
 291 01e2 8217     		slli	a5,a5,32
 292 01e4 8193     		srli	a5,a5,32
 293 01e6 8A07     		slli	a5,a5,2
 294 01e8 930604FF 		addi	a3,s0,-16
 295 01ec B697     		add	a5,a3,a5
 296 01ee 83A707ED 		lw	a5,-304(a5)
 297              		.loc 1 54 54 discriminator 2
 298 01f2 B99F     		addw	a5,a4,a5
 299 01f4 1B870700 		sext.w	a4,a5
 300              		.loc 1 54 8 discriminator 2
 301 01f8 8367C4FC 		lwu	a5,-52(s0)
 302 01fc 8A07     		slli	a5,a5,2
 303 01fe 930604FF 		addi	a3,s0,-16
 304 0202 B697     		add	a5,a3,a5
 305 0204 23A8E7EC 		sw	a4,-304(a5)
  53:sha256.c      **** 	for ( ; i < 64; ++i)
 306              		.loc 1 53 18 discriminator 2
 307 0208 8327C4FC 		lw	a5,-52(s0)
 308 020c 8527     		addiw	a5,a5,1
 309 020e 2326F4FC 		sw	a5,-52(s0)
 310              	.L4:
  53:sha256.c      **** 	for ( ; i < 64; ++i)
 311              		.loc 1 53 2 discriminator 1
 312 0212 8327C4FC 		lw	a5,-52(s0)
 313 0216 1B870700 		sext.w	a4,a5
 314 021a 9307F003 		li	a5,63
 315 021e E3F7E7EA 		bleu	a4,a5,.L5
  55:sha256.c      **** 
  56:sha256.c      **** 	a = ctx->state[0];
 316              		.loc 1 56 4
 317 0222 833784EB 		ld	a5,-328(s0)
 318 0226 BC4B     		lw	a5,80(a5)
 319 0228 2326F4FE 		sw	a5,-20(s0)
  57:sha256.c      **** 	b = ctx->state[1];
 320              		.loc 1 57 4
 321 022c 833784EB 		ld	a5,-328(s0)
 322 0230 FC4B     		lw	a5,84(a5)
 323 0232 2324F4FE 		sw	a5,-24(s0)
  58:sha256.c      **** 	c = ctx->state[2];
 324              		.loc 1 58 4
 325 0236 833784EB 		ld	a5,-328(s0)
 326 023a BC4F     		lw	a5,88(a5)
 327 023c 2322F4FE 		sw	a5,-28(s0)
  59:sha256.c      **** 	d = ctx->state[3];
 328              		.loc 1 59 4
 329 0240 833784EB 		ld	a5,-328(s0)
 330 0244 FC4F     		lw	a5,92(a5)
 331 0246 2320F4FE 		sw	a5,-32(s0)
  60:sha256.c      **** 	e = ctx->state[4];
 332              		.loc 1 60 4
 333 024a 833784EB 		ld	a5,-328(s0)
 334 024e BC53     		lw	a5,96(a5)
GAS LISTING /tmp/ccUgdhPb.s 			page 8


 335 0250 232EF4FC 		sw	a5,-36(s0)
  61:sha256.c      **** 	f = ctx->state[5];
 336              		.loc 1 61 4
 337 0254 833784EB 		ld	a5,-328(s0)
 338 0258 FC53     		lw	a5,100(a5)
 339 025a 232CF4FC 		sw	a5,-40(s0)
  62:sha256.c      **** 	g = ctx->state[6];
 340              		.loc 1 62 4
 341 025e 833784EB 		ld	a5,-328(s0)
 342 0262 BC57     		lw	a5,104(a5)
 343 0264 232AF4FC 		sw	a5,-44(s0)
  63:sha256.c      **** 	h = ctx->state[7];
 344              		.loc 1 63 4
 345 0268 833784EB 		ld	a5,-328(s0)
 346 026c FC57     		lw	a5,108(a5)
 347 026e 2328F4FC 		sw	a5,-48(s0)
  64:sha256.c      **** 
  65:sha256.c      **** 	for (i = 0; i < 64; ++i) {
 348              		.loc 1 65 9
 349 0272 232604FC 		sw	zero,-52(s0)
 350              		.loc 1 65 2
 351 0276 BDA2     		j	.L6
 352              	.L7:
  66:sha256.c      **** 		t1 = h + EP1(e) + CH(e,f,g) + k[i] + m[i];
 353              		.loc 1 66 12 discriminator 3
 354 0278 8327C4FD 		lw	a5,-36(s0)
 355 027c 1B977700 		slliw	a4,a5,7
 356 0280 9BD79701 		srliw	a5,a5,25
 357 0284 D98F     		or	a5,a4,a5
 358 0286 9B860700 		sext.w	a3,a5
 359 028a 8327C4FD 		lw	a5,-36(s0)
 360 028e 1BD7B700 		srliw	a4,a5,11
 361 0292 9B975701 		slliw	a5,a5,21
 362 0296 D98F     		or	a5,a4,a5
 363 0298 8127     		sext.w	a5,a5
 364 029a 3687     		mv	a4,a3
 365 029c B98F     		xor	a5,a4,a5
 366 029e 9B860700 		sext.w	a3,a5
 367 02a2 8327C4FD 		lw	a5,-36(s0)
 368 02a6 1BD76700 		srliw	a4,a5,6
 369 02aa 9B97A701 		slliw	a5,a5,26
 370 02ae D98F     		or	a5,a4,a5
 371 02b0 8127     		sext.w	a5,a5
 372 02b2 3687     		mv	a4,a3
 373 02b4 B98F     		xor	a5,a4,a5
 374 02b6 8127     		sext.w	a5,a5
 375              		.loc 1 66 10 discriminator 3
 376 02b8 032704FD 		lw	a4,-48(s0)
 377 02bc B99F     		addw	a5,a4,a5
 378 02be 1B870700 		sext.w	a4,a5
 379              		.loc 1 66 21 discriminator 3
 380 02c2 8326C4FD 		lw	a3,-36(s0)
 381 02c6 832784FD 		lw	a5,-40(s0)
 382 02ca F58F     		and	a5,a3,a5
 383 02cc 9B860700 		sext.w	a3,a5
 384 02d0 8327C4FD 		lw	a5,-36(s0)
 385 02d4 93C7F7FF 		not	a5,a5
GAS LISTING /tmp/ccUgdhPb.s 			page 9


 386 02d8 1B860700 		sext.w	a2,a5
 387 02dc 832744FD 		lw	a5,-44(s0)
 388 02e0 F18F     		and	a5,a5,a2
 389 02e2 8127     		sext.w	a5,a5
 390 02e4 B58F     		xor	a5,a3,a5
 391 02e6 8127     		sext.w	a5,a5
 392              		.loc 1 66 19 discriminator 3
 393 02e8 B99F     		addw	a5,a4,a5
 394 02ea 1B870700 		sext.w	a4,a5
 395              		.loc 1 66 34 discriminator 3
 396 02ee B7070000 		lui	a5,%hi(k)
 397 02f2 93860700 		addi	a3,a5,%lo(k)
 398 02f6 8367C4FC 		lwu	a5,-52(s0)
 399 02fa 8A07     		slli	a5,a5,2
 400 02fc B697     		add	a5,a3,a5
 401 02fe 9C43     		lw	a5,0(a5)
 402              		.loc 1 66 31 discriminator 3
 403 0300 B99F     		addw	a5,a4,a5
 404 0302 1B870700 		sext.w	a4,a5
 405              		.loc 1 66 41 discriminator 3
 406 0306 8367C4FC 		lwu	a5,-52(s0)
 407 030a 8A07     		slli	a5,a5,2
 408 030c 930604FF 		addi	a3,s0,-16
 409 0310 B697     		add	a5,a3,a5
 410 0312 83A707ED 		lw	a5,-304(a5)
 411              		.loc 1 66 6 discriminator 3
 412 0316 B99F     		addw	a5,a4,a5
 413 0318 2322F4FC 		sw	a5,-60(s0)
  67:sha256.c      **** 		t2 = EP0(a) + MAJ(a,b,c);
 414              		.loc 1 67 8 discriminator 3
 415 031c 8327C4FE 		lw	a5,-20(s0)
 416 0320 1BD72700 		srliw	a4,a5,2
 417 0324 9B97E701 		slliw	a5,a5,30
 418 0328 D98F     		or	a5,a4,a5
 419 032a 9B860700 		sext.w	a3,a5
 420 032e 8327C4FE 		lw	a5,-20(s0)
 421 0332 1BD7D700 		srliw	a4,a5,13
 422 0336 9B973701 		slliw	a5,a5,19
 423 033a D98F     		or	a5,a4,a5
 424 033c 8127     		sext.w	a5,a5
 425 033e 3687     		mv	a4,a3
 426 0340 B98F     		xor	a5,a4,a5
 427 0342 9B860700 		sext.w	a3,a5
 428 0346 8327C4FE 		lw	a5,-20(s0)
 429 034a 1B97A700 		slliw	a4,a5,10
 430 034e 9BD76701 		srliw	a5,a5,22
 431 0352 D98F     		or	a5,a4,a5
 432 0354 8127     		sext.w	a5,a5
 433 0356 3687     		mv	a4,a3
 434 0358 B98F     		xor	a5,a4,a5
 435 035a 1B870700 		sext.w	a4,a5
 436              		.loc 1 67 17 discriminator 3
 437 035e 832684FE 		lw	a3,-24(s0)
 438 0362 832744FE 		lw	a5,-28(s0)
 439 0366 B58F     		xor	a5,a3,a5
 440 0368 9B860700 		sext.w	a3,a5
 441 036c 8327C4FE 		lw	a5,-20(s0)
GAS LISTING /tmp/ccUgdhPb.s 			page 10


 442 0370 F58F     		and	a5,a5,a3
 443 0372 1B860700 		sext.w	a2,a5
 444 0376 832684FE 		lw	a3,-24(s0)
 445 037a 832744FE 		lw	a5,-28(s0)
 446 037e F58F     		and	a5,a3,a5
 447 0380 8127     		sext.w	a5,a5
 448 0382 B286     		mv	a3,a2
 449 0384 B58F     		xor	a5,a3,a5
 450 0386 8127     		sext.w	a5,a5
 451              		.loc 1 67 6 discriminator 3
 452 0388 B99F     		addw	a5,a4,a5
 453 038a 2320F4FC 		sw	a5,-64(s0)
  68:sha256.c      **** 		h = g;
 454              		.loc 1 68 5 discriminator 3
 455 038e 832744FD 		lw	a5,-44(s0)
 456 0392 2328F4FC 		sw	a5,-48(s0)
  69:sha256.c      **** 		g = f;
 457              		.loc 1 69 5 discriminator 3
 458 0396 832784FD 		lw	a5,-40(s0)
 459 039a 232AF4FC 		sw	a5,-44(s0)
  70:sha256.c      **** 		f = e;
 460              		.loc 1 70 5 discriminator 3
 461 039e 8327C4FD 		lw	a5,-36(s0)
 462 03a2 232CF4FC 		sw	a5,-40(s0)
  71:sha256.c      **** 		e = d + t1;
 463              		.loc 1 71 5 discriminator 3
 464 03a6 032704FE 		lw	a4,-32(s0)
 465 03aa 832744FC 		lw	a5,-60(s0)
 466 03ae B99F     		addw	a5,a4,a5
 467 03b0 232EF4FC 		sw	a5,-36(s0)
  72:sha256.c      **** 		d = c;
 468              		.loc 1 72 5 discriminator 3
 469 03b4 832744FE 		lw	a5,-28(s0)
 470 03b8 2320F4FE 		sw	a5,-32(s0)
  73:sha256.c      **** 		c = b;
 471              		.loc 1 73 5 discriminator 3
 472 03bc 832784FE 		lw	a5,-24(s0)
 473 03c0 2322F4FE 		sw	a5,-28(s0)
  74:sha256.c      **** 		b = a;
 474              		.loc 1 74 5 discriminator 3
 475 03c4 8327C4FE 		lw	a5,-20(s0)
 476 03c8 2324F4FE 		sw	a5,-24(s0)
  75:sha256.c      **** 		a = t1 + t2;
 477              		.loc 1 75 5 discriminator 3
 478 03cc 032744FC 		lw	a4,-60(s0)
 479 03d0 832704FC 		lw	a5,-64(s0)
 480 03d4 B99F     		addw	a5,a4,a5
 481 03d6 2326F4FE 		sw	a5,-20(s0)
  65:sha256.c      **** 		t1 = h + EP1(e) + CH(e,f,g) + k[i] + m[i];
 482              		.loc 1 65 22 discriminator 3
 483 03da 8327C4FC 		lw	a5,-52(s0)
 484 03de 8527     		addiw	a5,a5,1
 485 03e0 2326F4FC 		sw	a5,-52(s0)
 486              	.L6:
  65:sha256.c      **** 		t1 = h + EP1(e) + CH(e,f,g) + k[i] + m[i];
 487              		.loc 1 65 2 discriminator 1
 488 03e4 8327C4FC 		lw	a5,-52(s0)
GAS LISTING /tmp/ccUgdhPb.s 			page 11


 489 03e8 1B870700 		sext.w	a4,a5
 490 03ec 9307F003 		li	a5,63
 491 03f0 E3F4E7E8 		bleu	a4,a5,.L7
  76:sha256.c      **** 	}
  77:sha256.c      **** 
  78:sha256.c      **** 	ctx->state[0] += a;
 492              		.loc 1 78 16
 493 03f4 833784EB 		ld	a5,-328(s0)
 494 03f8 BC4B     		lw	a5,80(a5)
 495 03fa 0327C4FE 		lw	a4,-20(s0)
 496 03fe B99F     		addw	a5,a4,a5
 497 0400 1B870700 		sext.w	a4,a5
 498 0404 833784EB 		ld	a5,-328(s0)
 499 0408 B8CB     		sw	a4,80(a5)
  79:sha256.c      **** 	ctx->state[1] += b;
 500              		.loc 1 79 16
 501 040a 833784EB 		ld	a5,-328(s0)
 502 040e FC4B     		lw	a5,84(a5)
 503 0410 032784FE 		lw	a4,-24(s0)
 504 0414 B99F     		addw	a5,a4,a5
 505 0416 1B870700 		sext.w	a4,a5
 506 041a 833784EB 		ld	a5,-328(s0)
 507 041e F8CB     		sw	a4,84(a5)
  80:sha256.c      **** 	ctx->state[2] += c;
 508              		.loc 1 80 16
 509 0420 833784EB 		ld	a5,-328(s0)
 510 0424 BC4F     		lw	a5,88(a5)
 511 0426 032744FE 		lw	a4,-28(s0)
 512 042a B99F     		addw	a5,a4,a5
 513 042c 1B870700 		sext.w	a4,a5
 514 0430 833784EB 		ld	a5,-328(s0)
 515 0434 B8CF     		sw	a4,88(a5)
  81:sha256.c      **** 	ctx->state[3] += d;
 516              		.loc 1 81 16
 517 0436 833784EB 		ld	a5,-328(s0)
 518 043a FC4F     		lw	a5,92(a5)
 519 043c 032704FE 		lw	a4,-32(s0)
 520 0440 B99F     		addw	a5,a4,a5
 521 0442 1B870700 		sext.w	a4,a5
 522 0446 833784EB 		ld	a5,-328(s0)
 523 044a F8CF     		sw	a4,92(a5)
  82:sha256.c      **** 	ctx->state[4] += e;
 524              		.loc 1 82 16
 525 044c 833784EB 		ld	a5,-328(s0)
 526 0450 BC53     		lw	a5,96(a5)
 527 0452 0327C4FD 		lw	a4,-36(s0)
 528 0456 B99F     		addw	a5,a4,a5
 529 0458 1B870700 		sext.w	a4,a5
 530 045c 833784EB 		ld	a5,-328(s0)
 531 0460 B8D3     		sw	a4,96(a5)
  83:sha256.c      **** 	ctx->state[5] += f;
 532              		.loc 1 83 16
 533 0462 833784EB 		ld	a5,-328(s0)
 534 0466 FC53     		lw	a5,100(a5)
 535 0468 032784FD 		lw	a4,-40(s0)
 536 046c B99F     		addw	a5,a4,a5
 537 046e 1B870700 		sext.w	a4,a5
GAS LISTING /tmp/ccUgdhPb.s 			page 12


 538 0472 833784EB 		ld	a5,-328(s0)
 539 0476 F8D3     		sw	a4,100(a5)
  84:sha256.c      **** 	ctx->state[6] += g;
 540              		.loc 1 84 16
 541 0478 833784EB 		ld	a5,-328(s0)
 542 047c BC57     		lw	a5,104(a5)
 543 047e 032744FD 		lw	a4,-44(s0)
 544 0482 B99F     		addw	a5,a4,a5
 545 0484 1B870700 		sext.w	a4,a5
 546 0488 833784EB 		ld	a5,-328(s0)
 547 048c B8D7     		sw	a4,104(a5)
  85:sha256.c      **** 	ctx->state[7] += h;
 548              		.loc 1 85 16
 549 048e 833784EB 		ld	a5,-328(s0)
 550 0492 FC57     		lw	a5,108(a5)
 551 0494 032704FD 		lw	a4,-48(s0)
 552 0498 B99F     		addw	a5,a4,a5
 553 049a 1B870700 		sext.w	a4,a5
 554 049e 833784EB 		ld	a5,-328(s0)
 555 04a2 F8D7     		sw	a4,108(a5)
  86:sha256.c      **** }
 556              		.loc 1 86 1
 557 04a4 0100     		nop
 558 04a6 3664     		ld	s0,328(sp)
 559              		.cfi_restore 8
 560              		.cfi_def_cfa 2, 336
 561 04a8 7161     		addi	sp,sp,336
 562              		.cfi_def_cfa_offset 0
 563 04aa 8280     		jr	ra
 564              		.cfi_endproc
 565              	.LFE4:
 566              		.size	sha256_transform, .-sha256_transform
 567              		.align	1
 568              		.globl	sha256_init
 569              		.type	sha256_init, @function
 570              	sha256_init:
 571              	.LFB5:
  87:sha256.c      **** 
  88:sha256.c      **** void sha256_init(SHA256_CTX *ctx)
  89:sha256.c      **** {
 572              		.loc 1 89 1
 573              		.cfi_startproc
 574 04ac 0111     		addi	sp,sp,-32
 575              		.cfi_def_cfa_offset 32
 576 04ae 22EC     		sd	s0,24(sp)
 577              		.cfi_offset 8, -8
 578 04b0 0010     		addi	s0,sp,32
 579              		.cfi_def_cfa 8, 0
 580 04b2 2334A4FE 		sd	a0,-24(s0)
  90:sha256.c      **** 	ctx->datalen = 0;
 581              		.loc 1 90 15
 582 04b6 833784FE 		ld	a5,-24(s0)
 583 04ba 23A00704 		sw	zero,64(a5)
  91:sha256.c      **** 	ctx->bitlen = 0;
 584              		.loc 1 91 14
 585 04be 833784FE 		ld	a5,-24(s0)
 586 04c2 23B40704 		sd	zero,72(a5)
GAS LISTING /tmp/ccUgdhPb.s 			page 13


  92:sha256.c      **** 	ctx->state[0] = 0x6a09e667;
 587              		.loc 1 92 16
 588 04c6 833784FE 		ld	a5,-24(s0)
 589 04ca 37E7096A 		li	a4,1779032064
 590 04ce 13077766 		addi	a4,a4,1639
 591 04d2 B8CB     		sw	a4,80(a5)
  93:sha256.c      **** 	ctx->state[1] = 0xbb67ae85;
 592              		.loc 1 93 16
 593 04d4 833784FE 		ld	a5,-24(s0)
 594 04d8 37B767BB 		li	a4,-1150832640
 595 04dc 130757E8 		addi	a4,a4,-379
 596 04e0 F8CB     		sw	a4,84(a5)
  94:sha256.c      **** 	ctx->state[2] = 0x3c6ef372;
 597              		.loc 1 94 16
 598 04e2 833784FE 		ld	a5,-24(s0)
 599 04e6 37F76E3C 		li	a4,1013903360
 600 04ea 13072737 		addi	a4,a4,882
 601 04ee B8CF     		sw	a4,88(a5)
  95:sha256.c      **** 	ctx->state[3] = 0xa54ff53a;
 602              		.loc 1 95 16
 603 04f0 833784FE 		ld	a5,-24(s0)
 604 04f4 37F74FA5 		li	a4,-1521487872
 605 04f8 1307A753 		addi	a4,a4,1338
 606 04fc F8CF     		sw	a4,92(a5)
  96:sha256.c      **** 	ctx->state[4] = 0x510e527f;
 607              		.loc 1 96 16
 608 04fe 833784FE 		ld	a5,-24(s0)
 609 0502 37570E51 		li	a4,1359892480
 610 0506 1307F727 		addi	a4,a4,639
 611 050a B8D3     		sw	a4,96(a5)
  97:sha256.c      **** 	ctx->state[5] = 0x9b05688c;
 612              		.loc 1 97 16
 613 050c 833784FE 		ld	a5,-24(s0)
 614 0510 3777059B 		li	a4,-1694142464
 615 0514 1307C788 		addi	a4,a4,-1908
 616 0518 F8D3     		sw	a4,100(a5)
  98:sha256.c      **** 	ctx->state[6] = 0x1f83d9ab;
 617              		.loc 1 98 16
 618 051a 833784FE 		ld	a5,-24(s0)
 619 051e 37E7831F 		li	a4,528736256
 620 0522 1307B79A 		addi	a4,a4,-1621
 621 0526 B8D7     		sw	a4,104(a5)
  99:sha256.c      **** 	ctx->state[7] = 0x5be0cd19;
 622              		.loc 1 99 16
 623 0528 833784FE 		ld	a5,-24(s0)
 624 052c 37D7E05B 		li	a4,1541459968
 625 0530 130797D1 		addi	a4,a4,-743
 626 0534 F8D7     		sw	a4,108(a5)
 100:sha256.c      **** }
 627              		.loc 1 100 1
 628 0536 0100     		nop
 629 0538 6264     		ld	s0,24(sp)
 630              		.cfi_restore 8
 631              		.cfi_def_cfa 2, 32
 632 053a 0561     		addi	sp,sp,32
 633              		.cfi_def_cfa_offset 0
 634 053c 8280     		jr	ra
GAS LISTING /tmp/ccUgdhPb.s 			page 14


 635              		.cfi_endproc
 636              	.LFE5:
 637              		.size	sha256_init, .-sha256_init
 638              		.align	1
 639              		.globl	sha256_update
 640              		.type	sha256_update, @function
 641              	sha256_update:
 642              	.LFB6:
 101:sha256.c      **** 
 102:sha256.c      **** void sha256_update(SHA256_CTX *ctx, const BYTE data[], size_t len)
 103:sha256.c      **** {
 643              		.loc 1 103 1
 644              		.cfi_startproc
 645 053e 3971     		addi	sp,sp,-64
 646              		.cfi_def_cfa_offset 64
 647 0540 06FC     		sd	ra,56(sp)
 648 0542 22F8     		sd	s0,48(sp)
 649              		.cfi_offset 1, -8
 650              		.cfi_offset 8, -16
 651 0544 8000     		addi	s0,sp,64
 652              		.cfi_def_cfa 8, 0
 653 0546 233CA4FC 		sd	a0,-40(s0)
 654 054a 2338B4FC 		sd	a1,-48(s0)
 655 054e 2334C4FC 		sd	a2,-56(s0)
 104:sha256.c      **** 	WORD i;
 105:sha256.c      **** 
 106:sha256.c      **** 	for (i = 0; i < len; ++i) {
 656              		.loc 1 106 9
 657 0552 232604FE 		sw	zero,-20(s0)
 658              		.loc 1 106 2
 659 0556 B5A8     		j	.L10
 660              	.L12:
 107:sha256.c      **** 		ctx->data[ctx->datalen] = data[i];
 661              		.loc 1 107 33
 662 0558 8367C4FE 		lwu	a5,-20(s0)
 663 055c 033704FD 		ld	a4,-48(s0)
 664 0560 BA97     		add	a5,a4,a5
 665              		.loc 1 107 16
 666 0562 033784FD 		ld	a4,-40(s0)
 667 0566 3043     		lw	a2,64(a4)
 668              		.loc 1 107 33
 669 0568 03C70700 		lbu	a4,0(a5)
 670              		.loc 1 107 27
 671 056c 833684FD 		ld	a3,-40(s0)
 672 0570 93170602 		slli	a5,a2,32
 673 0574 8193     		srli	a5,a5,32
 674 0576 B697     		add	a5,a3,a5
 675 0578 2380E700 		sb	a4,0(a5)
 108:sha256.c      **** 		ctx->datalen++;
 676              		.loc 1 108 6
 677 057c 833784FD 		ld	a5,-40(s0)
 678 0580 BC43     		lw	a5,64(a5)
 679              		.loc 1 108 15
 680 0582 8527     		addiw	a5,a5,1
 681 0584 1B870700 		sext.w	a4,a5
 682 0588 833784FD 		ld	a5,-40(s0)
 683 058c B8C3     		sw	a4,64(a5)
GAS LISTING /tmp/ccUgdhPb.s 			page 15


 109:sha256.c      **** 		if (ctx->datalen == 64) {
 684              		.loc 1 109 10
 685 058e 833784FD 		ld	a5,-40(s0)
 686 0592 BC43     		lw	a5,64(a5)
 687              		.loc 1 109 6
 688 0594 3E87     		mv	a4,a5
 689 0596 93070004 		li	a5,64
 690 059a 6317F702 		bne	a4,a5,.L11
 110:sha256.c      **** 			sha256_transform(ctx, ctx->data);
 691              		.loc 1 110 29
 692 059e 833784FD 		ld	a5,-40(s0)
 693              		.loc 1 110 4
 694 05a2 BE85     		mv	a1,a5
 695 05a4 033584FD 		ld	a0,-40(s0)
 696 05a8 97000000 		call	sha256_transform
 696      E7800000 
 111:sha256.c      **** 			ctx->bitlen += 512;
 697              		.loc 1 111 16
 698 05b0 833784FD 		ld	a5,-40(s0)
 699 05b4 BC67     		ld	a5,72(a5)
 700 05b6 13870720 		addi	a4,a5,512
 701 05ba 833784FD 		ld	a5,-40(s0)
 702 05be B8E7     		sd	a4,72(a5)
 112:sha256.c      **** 			ctx->datalen = 0;
 703              		.loc 1 112 17
 704 05c0 833784FD 		ld	a5,-40(s0)
 705 05c4 23A00704 		sw	zero,64(a5)
 706              	.L11:
 106:sha256.c      **** 		ctx->data[ctx->datalen] = data[i];
 707              		.loc 1 106 23 discriminator 2
 708 05c8 8327C4FE 		lw	a5,-20(s0)
 709 05cc 8527     		addiw	a5,a5,1
 710 05ce 2326F4FE 		sw	a5,-20(s0)
 711              	.L10:
 106:sha256.c      **** 		ctx->data[ctx->datalen] = data[i];
 712              		.loc 1 106 16 discriminator 1
 713 05d2 8367C4FE 		lwu	a5,-20(s0)
 106:sha256.c      **** 		ctx->data[ctx->datalen] = data[i];
 714              		.loc 1 106 2 discriminator 1
 715 05d6 033784FC 		ld	a4,-56(s0)
 716 05da E3EFE7F6 		bgtu	a4,a5,.L12
 113:sha256.c      **** 		}
 114:sha256.c      **** 	}
 115:sha256.c      **** }
 717              		.loc 1 115 1
 718 05de 0100     		nop
 719 05e0 0100     		nop
 720 05e2 E270     		ld	ra,56(sp)
 721              		.cfi_restore 1
 722 05e4 4274     		ld	s0,48(sp)
 723              		.cfi_restore 8
 724              		.cfi_def_cfa 2, 64
 725 05e6 2161     		addi	sp,sp,64
 726              		.cfi_def_cfa_offset 0
 727 05e8 8280     		jr	ra
 728              		.cfi_endproc
 729              	.LFE6:
GAS LISTING /tmp/ccUgdhPb.s 			page 16


 730              		.size	sha256_update, .-sha256_update
 731              		.align	1
 732              		.globl	sha256_final
 733              		.type	sha256_final, @function
 734              	sha256_final:
 735              	.LFB7:
 116:sha256.c      **** 
 117:sha256.c      **** void sha256_final(SHA256_CTX *ctx, BYTE hash[])
 118:sha256.c      **** {
 736              		.loc 1 118 1
 737              		.cfi_startproc
 738 05ea 7971     		addi	sp,sp,-48
 739              		.cfi_def_cfa_offset 48
 740 05ec 06F4     		sd	ra,40(sp)
 741 05ee 22F0     		sd	s0,32(sp)
 742              		.cfi_offset 1, -8
 743              		.cfi_offset 8, -16
 744 05f0 0018     		addi	s0,sp,48
 745              		.cfi_def_cfa 8, 0
 746 05f2 233CA4FC 		sd	a0,-40(s0)
 747 05f6 2338B4FC 		sd	a1,-48(s0)
 119:sha256.c      **** 	WORD i;
 120:sha256.c      **** 
 121:sha256.c      **** 	i = ctx->datalen;
 748              		.loc 1 121 4
 749 05fa 833784FD 		ld	a5,-40(s0)
 750 05fe BC43     		lw	a5,64(a5)
 751 0600 2326F4FE 		sw	a5,-20(s0)
 122:sha256.c      **** 
 123:sha256.c      **** 	// Pad whatever data is left in the buffer.
 124:sha256.c      **** 	if (ctx->datalen < 56) {
 752              		.loc 1 124 9
 753 0604 833784FD 		ld	a5,-40(s0)
 754 0608 BC43     		lw	a5,64(a5)
 755              		.loc 1 124 5
 756 060a 3E87     		mv	a4,a5
 757 060c 93077003 		li	a5,55
 758 0610 63E8E704 		bgtu	a4,a5,.L14
 125:sha256.c      **** 		ctx->data[i++] = 0x80;
 759              		.loc 1 125 14
 760 0614 8327C4FE 		lw	a5,-20(s0)
 761 0618 1B871700 		addiw	a4,a5,1
 762 061c 2326E4FE 		sw	a4,-20(s0)
 763              		.loc 1 125 18
 764 0620 033784FD 		ld	a4,-40(s0)
 765 0624 8217     		slli	a5,a5,32
 766 0626 8193     		srli	a5,a5,32
 767 0628 BA97     		add	a5,a4,a5
 768 062a 130700F8 		li	a4,-128
 769 062e 2380E700 		sb	a4,0(a5)
 126:sha256.c      **** 		while (i < 56)
 770              		.loc 1 126 9
 771 0632 31A8     		j	.L15
 772              	.L16:
 127:sha256.c      **** 			ctx->data[i++] = 0x00;
 773              		.loc 1 127 15
 774 0634 8327C4FE 		lw	a5,-20(s0)
GAS LISTING /tmp/ccUgdhPb.s 			page 17


 775 0638 1B871700 		addiw	a4,a5,1
 776 063c 2326E4FE 		sw	a4,-20(s0)
 777              		.loc 1 127 19
 778 0640 033784FD 		ld	a4,-40(s0)
 779 0644 8217     		slli	a5,a5,32
 780 0646 8193     		srli	a5,a5,32
 781 0648 BA97     		add	a5,a4,a5
 782 064a 23800700 		sb	zero,0(a5)
 783              	.L15:
 126:sha256.c      **** 		while (i < 56)
 784              		.loc 1 126 9
 785 064e 8327C4FE 		lw	a5,-20(s0)
 786 0652 1B870700 		sext.w	a4,a5
 787 0656 93077003 		li	a5,55
 788 065a E3FDE7FC 		bleu	a4,a5,.L16
 789 065e 8DA8     		j	.L17
 790              	.L14:
 128:sha256.c      **** 	}
 129:sha256.c      **** 	else {
 130:sha256.c      **** 		ctx->data[i++] = 0x80;
 791              		.loc 1 130 14
 792 0660 8327C4FE 		lw	a5,-20(s0)
 793 0664 1B871700 		addiw	a4,a5,1
 794 0668 2326E4FE 		sw	a4,-20(s0)
 795              		.loc 1 130 18
 796 066c 033784FD 		ld	a4,-40(s0)
 797 0670 8217     		slli	a5,a5,32
 798 0672 8193     		srli	a5,a5,32
 799 0674 BA97     		add	a5,a4,a5
 800 0676 130700F8 		li	a4,-128
 801 067a 2380E700 		sb	a4,0(a5)
 131:sha256.c      **** 		while (i < 64)
 802              		.loc 1 131 9
 803 067e 31A8     		j	.L18
 804              	.L19:
 132:sha256.c      **** 			ctx->data[i++] = 0x00;
 805              		.loc 1 132 15
 806 0680 8327C4FE 		lw	a5,-20(s0)
 807 0684 1B871700 		addiw	a4,a5,1
 808 0688 2326E4FE 		sw	a4,-20(s0)
 809              		.loc 1 132 19
 810 068c 033784FD 		ld	a4,-40(s0)
 811 0690 8217     		slli	a5,a5,32
 812 0692 8193     		srli	a5,a5,32
 813 0694 BA97     		add	a5,a4,a5
 814 0696 23800700 		sb	zero,0(a5)
 815              	.L18:
 131:sha256.c      **** 		while (i < 64)
 816              		.loc 1 131 9
 817 069a 8327C4FE 		lw	a5,-20(s0)
 818 069e 1B870700 		sext.w	a4,a5
 819 06a2 9307F003 		li	a5,63
 820 06a6 E3FDE7FC 		bleu	a4,a5,.L19
 133:sha256.c      **** 		sha256_transform(ctx, ctx->data);
 821              		.loc 1 133 28
 822 06aa 833784FD 		ld	a5,-40(s0)
 823              		.loc 1 133 3
GAS LISTING /tmp/ccUgdhPb.s 			page 18


 824 06ae BE85     		mv	a1,a5
 825 06b0 033584FD 		ld	a0,-40(s0)
 826 06b4 97000000 		call	sha256_transform
 826      E7800000 
 134:sha256.c      **** 		memset(ctx->data, 0, 56);
 827              		.loc 1 134 13
 828 06bc 833784FD 		ld	a5,-40(s0)
 829              		.loc 1 134 3
 830 06c0 13068003 		li	a2,56
 831 06c4 8145     		li	a1,0
 832 06c6 3E85     		mv	a0,a5
 833 06c8 97000000 		call	memset
 833      E7800000 
 834              	.L17:
 135:sha256.c      **** 	}
 136:sha256.c      **** 
 137:sha256.c      **** 	// Append to the padding the total message's length in bits and transform.
 138:sha256.c      **** 	ctx->bitlen += ctx->datalen * 8;
 835              		.loc 1 138 14
 836 06d0 833784FD 		ld	a5,-40(s0)
 837 06d4 B867     		ld	a4,72(a5)
 838              		.loc 1 138 20
 839 06d6 833784FD 		ld	a5,-40(s0)
 840 06da BC43     		lw	a5,64(a5)
 841              		.loc 1 138 30
 842 06dc 9B973700 		slliw	a5,a5,3
 843 06e0 8127     		sext.w	a5,a5
 844 06e2 8217     		slli	a5,a5,32
 845 06e4 8193     		srli	a5,a5,32
 846              		.loc 1 138 14
 847 06e6 3E97     		add	a4,a4,a5
 848 06e8 833784FD 		ld	a5,-40(s0)
 849 06ec B8E7     		sd	a4,72(a5)
 139:sha256.c      **** 	ctx->data[63] = ctx->bitlen;
 850              		.loc 1 139 21
 851 06ee 833784FD 		ld	a5,-40(s0)
 852 06f2 BC67     		ld	a5,72(a5)
 853              		.loc 1 139 16
 854 06f4 13F7F70F 		andi	a4,a5,0xff
 855 06f8 833784FD 		ld	a5,-40(s0)
 856 06fc A38FE702 		sb	a4,63(a5)
 140:sha256.c      **** 	ctx->data[62] = ctx->bitlen >> 8;
 857              		.loc 1 140 21
 858 0700 833784FD 		ld	a5,-40(s0)
 859 0704 BC67     		ld	a5,72(a5)
 860              		.loc 1 140 30
 861 0706 A183     		srli	a5,a5,8
 862              		.loc 1 140 16
 863 0708 13F7F70F 		andi	a4,a5,0xff
 864 070c 833784FD 		ld	a5,-40(s0)
 865 0710 238FE702 		sb	a4,62(a5)
 141:sha256.c      **** 	ctx->data[61] = ctx->bitlen >> 16;
 866              		.loc 1 141 21
 867 0714 833784FD 		ld	a5,-40(s0)
 868 0718 BC67     		ld	a5,72(a5)
 869              		.loc 1 141 30
 870 071a C183     		srli	a5,a5,16
GAS LISTING /tmp/ccUgdhPb.s 			page 19


 871              		.loc 1 141 16
 872 071c 13F7F70F 		andi	a4,a5,0xff
 873 0720 833784FD 		ld	a5,-40(s0)
 874 0724 A38EE702 		sb	a4,61(a5)
 142:sha256.c      **** 	ctx->data[60] = ctx->bitlen >> 24;
 875              		.loc 1 142 21
 876 0728 833784FD 		ld	a5,-40(s0)
 877 072c BC67     		ld	a5,72(a5)
 878              		.loc 1 142 30
 879 072e E183     		srli	a5,a5,24
 880              		.loc 1 142 16
 881 0730 13F7F70F 		andi	a4,a5,0xff
 882 0734 833784FD 		ld	a5,-40(s0)
 883 0738 238EE702 		sb	a4,60(a5)
 143:sha256.c      **** 	ctx->data[59] = ctx->bitlen >> 32;
 884              		.loc 1 143 21
 885 073c 833784FD 		ld	a5,-40(s0)
 886 0740 BC67     		ld	a5,72(a5)
 887              		.loc 1 143 30
 888 0742 8193     		srli	a5,a5,32
 889              		.loc 1 143 16
 890 0744 13F7F70F 		andi	a4,a5,0xff
 891 0748 833784FD 		ld	a5,-40(s0)
 892 074c A38DE702 		sb	a4,59(a5)
 144:sha256.c      **** 	ctx->data[58] = ctx->bitlen >> 40;
 893              		.loc 1 144 21
 894 0750 833784FD 		ld	a5,-40(s0)
 895 0754 BC67     		ld	a5,72(a5)
 896              		.loc 1 144 30
 897 0756 A193     		srli	a5,a5,40
 898              		.loc 1 144 16
 899 0758 13F7F70F 		andi	a4,a5,0xff
 900 075c 833784FD 		ld	a5,-40(s0)
 901 0760 238DE702 		sb	a4,58(a5)
 145:sha256.c      **** 	ctx->data[57] = ctx->bitlen >> 48;
 902              		.loc 1 145 21
 903 0764 833784FD 		ld	a5,-40(s0)
 904 0768 BC67     		ld	a5,72(a5)
 905              		.loc 1 145 30
 906 076a C193     		srli	a5,a5,48
 907              		.loc 1 145 16
 908 076c 13F7F70F 		andi	a4,a5,0xff
 909 0770 833784FD 		ld	a5,-40(s0)
 910 0774 A38CE702 		sb	a4,57(a5)
 146:sha256.c      **** 	ctx->data[56] = ctx->bitlen >> 56;
 911              		.loc 1 146 21
 912 0778 833784FD 		ld	a5,-40(s0)
 913 077c BC67     		ld	a5,72(a5)
 914              		.loc 1 146 30
 915 077e E193     		srli	a5,a5,56
 916              		.loc 1 146 16
 917 0780 13F7F70F 		andi	a4,a5,0xff
 918 0784 833784FD 		ld	a5,-40(s0)
 919 0788 238CE702 		sb	a4,56(a5)
 147:sha256.c      **** 	sha256_transform(ctx, ctx->data);
 920              		.loc 1 147 27
 921 078c 833784FD 		ld	a5,-40(s0)
GAS LISTING /tmp/ccUgdhPb.s 			page 20


 922              		.loc 1 147 2
 923 0790 BE85     		mv	a1,a5
 924 0792 033584FD 		ld	a0,-40(s0)
 925 0796 97000000 		call	sha256_transform
 925      E7800000 
 148:sha256.c      **** 
 149:sha256.c      **** 	// Since this implementation uses little endian byte ordering and SHA uses big endian,
 150:sha256.c      **** 	// reverse all the bytes when copying the final state to the output hash.
 151:sha256.c      **** 	for (i = 0; i < 4; ++i) {
 926              		.loc 1 151 9
 927 079e 232604FE 		sw	zero,-20(s0)
 928              		.loc 1 151 2
 929 07a2 D5A2     		j	.L20
 930              	.L21:
 152:sha256.c      **** 		hash[i]      = (ctx->state[0] >> (24 - i * 8)) & 0x000000ff;
 931              		.loc 1 152 29 discriminator 3
 932 07a4 833784FD 		ld	a5,-40(s0)
 933 07a8 BC4B     		lw	a5,80(a5)
 934              		.loc 1 152 40 discriminator 3
 935 07aa 8D46     		li	a3,3
 936 07ac 0327C4FE 		lw	a4,-20(s0)
 937 07b0 3B87E640 		subw	a4,a3,a4
 938 07b4 0127     		sext.w	a4,a4
 939 07b6 1B173700 		slliw	a4,a4,3
 940 07ba 0127     		sext.w	a4,a4
 941              		.loc 1 152 33 discriminator 3
 942 07bc BBD7E700 		srlw	a5,a5,a4
 943 07c0 9B860700 		sext.w	a3,a5
 944              		.loc 1 152 7 discriminator 3
 945 07c4 8367C4FE 		lwu	a5,-20(s0)
 946 07c8 033704FD 		ld	a4,-48(s0)
 947 07cc BA97     		add	a5,a4,a5
 948              		.loc 1 152 16 discriminator 3
 949 07ce 3687     		mv	a4,a3
 950 07d0 1377F70F 		andi	a4,a4,0xff
 951 07d4 2380E700 		sb	a4,0(a5)
 153:sha256.c      **** 		hash[i + 4]  = (ctx->state[1] >> (24 - i * 8)) & 0x000000ff;
 952              		.loc 1 153 29 discriminator 3
 953 07d8 833784FD 		ld	a5,-40(s0)
 954 07dc FC4B     		lw	a5,84(a5)
 955              		.loc 1 153 40 discriminator 3
 956 07de 8D46     		li	a3,3
 957 07e0 0327C4FE 		lw	a4,-20(s0)
 958 07e4 3B87E640 		subw	a4,a3,a4
 959 07e8 0127     		sext.w	a4,a4
 960 07ea 1B173700 		slliw	a4,a4,3
 961 07ee 0127     		sext.w	a4,a4
 962              		.loc 1 153 33 discriminator 3
 963 07f0 BBD7E700 		srlw	a5,a5,a4
 964 07f4 9B860700 		sext.w	a3,a5
 965              		.loc 1 153 10 discriminator 3
 966 07f8 8327C4FE 		lw	a5,-20(s0)
 967 07fc 9127     		addiw	a5,a5,4
 968 07fe 8127     		sext.w	a5,a5
 969 0800 8217     		slli	a5,a5,32
 970 0802 8193     		srli	a5,a5,32
 971              		.loc 1 153 7 discriminator 3
GAS LISTING /tmp/ccUgdhPb.s 			page 21


 972 0804 033704FD 		ld	a4,-48(s0)
 973 0808 BA97     		add	a5,a4,a5
 974              		.loc 1 153 16 discriminator 3
 975 080a 3687     		mv	a4,a3
 976 080c 1377F70F 		andi	a4,a4,0xff
 977 0810 2380E700 		sb	a4,0(a5)
 154:sha256.c      **** 		hash[i + 8]  = (ctx->state[2] >> (24 - i * 8)) & 0x000000ff;
 978              		.loc 1 154 29 discriminator 3
 979 0814 833784FD 		ld	a5,-40(s0)
 980 0818 BC4F     		lw	a5,88(a5)
 981              		.loc 1 154 40 discriminator 3
 982 081a 8D46     		li	a3,3
 983 081c 0327C4FE 		lw	a4,-20(s0)
 984 0820 3B87E640 		subw	a4,a3,a4
 985 0824 0127     		sext.w	a4,a4
 986 0826 1B173700 		slliw	a4,a4,3
 987 082a 0127     		sext.w	a4,a4
 988              		.loc 1 154 33 discriminator 3
 989 082c BBD7E700 		srlw	a5,a5,a4
 990 0830 9B860700 		sext.w	a3,a5
 991              		.loc 1 154 10 discriminator 3
 992 0834 8327C4FE 		lw	a5,-20(s0)
 993 0838 A127     		addiw	a5,a5,8
 994 083a 8127     		sext.w	a5,a5
 995 083c 8217     		slli	a5,a5,32
 996 083e 8193     		srli	a5,a5,32
 997              		.loc 1 154 7 discriminator 3
 998 0840 033704FD 		ld	a4,-48(s0)
 999 0844 BA97     		add	a5,a4,a5
 1000              		.loc 1 154 16 discriminator 3
 1001 0846 3687     		mv	a4,a3
 1002 0848 1377F70F 		andi	a4,a4,0xff
 1003 084c 2380E700 		sb	a4,0(a5)
 155:sha256.c      **** 		hash[i + 12] = (ctx->state[3] >> (24 - i * 8)) & 0x000000ff;
 1004              		.loc 1 155 29 discriminator 3
 1005 0850 833784FD 		ld	a5,-40(s0)
 1006 0854 FC4F     		lw	a5,92(a5)
 1007              		.loc 1 155 40 discriminator 3
 1008 0856 8D46     		li	a3,3
 1009 0858 0327C4FE 		lw	a4,-20(s0)
 1010 085c 3B87E640 		subw	a4,a3,a4
 1011 0860 0127     		sext.w	a4,a4
 1012 0862 1B173700 		slliw	a4,a4,3
 1013 0866 0127     		sext.w	a4,a4
 1014              		.loc 1 155 33 discriminator 3
 1015 0868 BBD7E700 		srlw	a5,a5,a4
 1016 086c 9B860700 		sext.w	a3,a5
 1017              		.loc 1 155 10 discriminator 3
 1018 0870 8327C4FE 		lw	a5,-20(s0)
 1019 0874 B127     		addiw	a5,a5,12
 1020 0876 8127     		sext.w	a5,a5
 1021 0878 8217     		slli	a5,a5,32
 1022 087a 8193     		srli	a5,a5,32
 1023              		.loc 1 155 7 discriminator 3
 1024 087c 033704FD 		ld	a4,-48(s0)
 1025 0880 BA97     		add	a5,a4,a5
 1026              		.loc 1 155 16 discriminator 3
GAS LISTING /tmp/ccUgdhPb.s 			page 22


 1027 0882 3687     		mv	a4,a3
 1028 0884 1377F70F 		andi	a4,a4,0xff
 1029 0888 2380E700 		sb	a4,0(a5)
 156:sha256.c      **** 		hash[i + 16] = (ctx->state[4] >> (24 - i * 8)) & 0x000000ff;
 1030              		.loc 1 156 29 discriminator 3
 1031 088c 833784FD 		ld	a5,-40(s0)
 1032 0890 BC53     		lw	a5,96(a5)
 1033              		.loc 1 156 40 discriminator 3
 1034 0892 8D46     		li	a3,3
 1035 0894 0327C4FE 		lw	a4,-20(s0)
 1036 0898 3B87E640 		subw	a4,a3,a4
 1037 089c 0127     		sext.w	a4,a4
 1038 089e 1B173700 		slliw	a4,a4,3
 1039 08a2 0127     		sext.w	a4,a4
 1040              		.loc 1 156 33 discriminator 3
 1041 08a4 BBD7E700 		srlw	a5,a5,a4
 1042 08a8 9B860700 		sext.w	a3,a5
 1043              		.loc 1 156 10 discriminator 3
 1044 08ac 8327C4FE 		lw	a5,-20(s0)
 1045 08b0 C127     		addiw	a5,a5,16
 1046 08b2 8127     		sext.w	a5,a5
 1047 08b4 8217     		slli	a5,a5,32
 1048 08b6 8193     		srli	a5,a5,32
 1049              		.loc 1 156 7 discriminator 3
 1050 08b8 033704FD 		ld	a4,-48(s0)
 1051 08bc BA97     		add	a5,a4,a5
 1052              		.loc 1 156 16 discriminator 3
 1053 08be 3687     		mv	a4,a3
 1054 08c0 1377F70F 		andi	a4,a4,0xff
 1055 08c4 2380E700 		sb	a4,0(a5)
 157:sha256.c      **** 		hash[i + 20] = (ctx->state[5] >> (24 - i * 8)) & 0x000000ff;
 1056              		.loc 1 157 29 discriminator 3
 1057 08c8 833784FD 		ld	a5,-40(s0)
 1058 08cc FC53     		lw	a5,100(a5)
 1059              		.loc 1 157 40 discriminator 3
 1060 08ce 8D46     		li	a3,3
 1061 08d0 0327C4FE 		lw	a4,-20(s0)
 1062 08d4 3B87E640 		subw	a4,a3,a4
 1063 08d8 0127     		sext.w	a4,a4
 1064 08da 1B173700 		slliw	a4,a4,3
 1065 08de 0127     		sext.w	a4,a4
 1066              		.loc 1 157 33 discriminator 3
 1067 08e0 BBD7E700 		srlw	a5,a5,a4
 1068 08e4 9B860700 		sext.w	a3,a5
 1069              		.loc 1 157 10 discriminator 3
 1070 08e8 8327C4FE 		lw	a5,-20(s0)
 1071 08ec D127     		addiw	a5,a5,20
 1072 08ee 8127     		sext.w	a5,a5
 1073 08f0 8217     		slli	a5,a5,32
 1074 08f2 8193     		srli	a5,a5,32
 1075              		.loc 1 157 7 discriminator 3
 1076 08f4 033704FD 		ld	a4,-48(s0)
 1077 08f8 BA97     		add	a5,a4,a5
 1078              		.loc 1 157 16 discriminator 3
 1079 08fa 3687     		mv	a4,a3
 1080 08fc 1377F70F 		andi	a4,a4,0xff
 1081 0900 2380E700 		sb	a4,0(a5)
GAS LISTING /tmp/ccUgdhPb.s 			page 23


 158:sha256.c      **** 		hash[i + 24] = (ctx->state[6] >> (24 - i * 8)) & 0x000000ff;
 1082              		.loc 1 158 29 discriminator 3
 1083 0904 833784FD 		ld	a5,-40(s0)
 1084 0908 BC57     		lw	a5,104(a5)
 1085              		.loc 1 158 40 discriminator 3
 1086 090a 8D46     		li	a3,3
 1087 090c 0327C4FE 		lw	a4,-20(s0)
 1088 0910 3B87E640 		subw	a4,a3,a4
 1089 0914 0127     		sext.w	a4,a4
 1090 0916 1B173700 		slliw	a4,a4,3
 1091 091a 0127     		sext.w	a4,a4
 1092              		.loc 1 158 33 discriminator 3
 1093 091c BBD7E700 		srlw	a5,a5,a4
 1094 0920 9B860700 		sext.w	a3,a5
 1095              		.loc 1 158 10 discriminator 3
 1096 0924 8327C4FE 		lw	a5,-20(s0)
 1097 0928 E127     		addiw	a5,a5,24
 1098 092a 8127     		sext.w	a5,a5
 1099 092c 8217     		slli	a5,a5,32
 1100 092e 8193     		srli	a5,a5,32
 1101              		.loc 1 158 7 discriminator 3
 1102 0930 033704FD 		ld	a4,-48(s0)
 1103 0934 BA97     		add	a5,a4,a5
 1104              		.loc 1 158 16 discriminator 3
 1105 0936 3687     		mv	a4,a3
 1106 0938 1377F70F 		andi	a4,a4,0xff
 1107 093c 2380E700 		sb	a4,0(a5)
 159:sha256.c      **** 		hash[i + 28] = (ctx->state[7] >> (24 - i * 8)) & 0x000000ff;
 1108              		.loc 1 159 29 discriminator 3
 1109 0940 833784FD 		ld	a5,-40(s0)
 1110 0944 FC57     		lw	a5,108(a5)
 1111              		.loc 1 159 40 discriminator 3
 1112 0946 8D46     		li	a3,3
 1113 0948 0327C4FE 		lw	a4,-20(s0)
 1114 094c 3B87E640 		subw	a4,a3,a4
 1115 0950 0127     		sext.w	a4,a4
 1116 0952 1B173700 		slliw	a4,a4,3
 1117 0956 0127     		sext.w	a4,a4
 1118              		.loc 1 159 33 discriminator 3
 1119 0958 BBD7E700 		srlw	a5,a5,a4
 1120 095c 9B860700 		sext.w	a3,a5
 1121              		.loc 1 159 10 discriminator 3
 1122 0960 8327C4FE 		lw	a5,-20(s0)
 1123 0964 F127     		addiw	a5,a5,28
 1124 0966 8127     		sext.w	a5,a5
 1125 0968 8217     		slli	a5,a5,32
 1126 096a 8193     		srli	a5,a5,32
 1127              		.loc 1 159 7 discriminator 3
 1128 096c 033704FD 		ld	a4,-48(s0)
 1129 0970 BA97     		add	a5,a4,a5
 1130              		.loc 1 159 16 discriminator 3
 1131 0972 3687     		mv	a4,a3
 1132 0974 1377F70F 		andi	a4,a4,0xff
 1133 0978 2380E700 		sb	a4,0(a5)
 151:sha256.c      **** 		hash[i]      = (ctx->state[0] >> (24 - i * 8)) & 0x000000ff;
 1134              		.loc 1 151 21 discriminator 3
 1135 097c 8327C4FE 		lw	a5,-20(s0)
GAS LISTING /tmp/ccUgdhPb.s 			page 24


 1136 0980 8527     		addiw	a5,a5,1
 1137 0982 2326F4FE 		sw	a5,-20(s0)
 1138              	.L20:
 151:sha256.c      **** 		hash[i]      = (ctx->state[0] >> (24 - i * 8)) & 0x000000ff;
 1139              		.loc 1 151 2 discriminator 1
 1140 0986 8327C4FE 		lw	a5,-20(s0)
 1141 098a 1B870700 		sext.w	a4,a5
 1142 098e 8D47     		li	a5,3
 1143 0990 E3FAE7E0 		bleu	a4,a5,.L21
 160:sha256.c      **** 	}
 161:sha256.c      **** }
 1144              		.loc 1 161 1
 1145 0994 0100     		nop
 1146 0996 0100     		nop
 1147 0998 A270     		ld	ra,40(sp)
 1148              		.cfi_restore 1
 1149 099a 0274     		ld	s0,32(sp)
 1150              		.cfi_restore 8
 1151              		.cfi_def_cfa 2, 48
 1152 099c 4561     		addi	sp,sp,48
 1153              		.cfi_def_cfa_offset 0
 1154 099e 8280     		jr	ra
 1155              		.cfi_endproc
 1156              	.LFE7:
 1157              		.size	sha256_final, .-sha256_final
 1158              		.section	.rodata
 1159              		.align	3
 1160              	.LC0:
 1161 0100 506C6561 		.string	"Please input string: "
 1161      73652069 
 1161      6E707574 
 1161      20737472 
 1161      696E673A 
 1162 0116 0000     		.align	3
 1163              	.LC1:
 1164 0118 257300   		.string	"%s"
 1165 011b 00000000 		.align	3
 1165      00
 1166              	.LC2:
 1167 0120 68617368 		.string	"hash hex: "
 1167      20686578 
 1167      3A2000
 1168 012b 00000000 		.align	3
 1168      00
 1169              	.LC3:
 1170 0130 25303278 		.string	"%02x"
 1170      00
 1171              		.text
 1172              		.align	1
 1173              		.globl	main
 1174              		.type	main, @function
 1175              	main:
 1176              	.LFB8:
 162:sha256.c      **** 
 163:sha256.c      **** int main()
 164:sha256.c      **** {
 1177              		.loc 1 164 1
GAS LISTING /tmp/ccUgdhPb.s 			page 25


 1178              		.cfi_startproc
 1179 09a0 6171     		addi	sp,sp,-432
 1180              		.cfi_def_cfa_offset 432
 1181 09a2 06F7     		sd	ra,424(sp)
 1182 09a4 22F3     		sd	s0,416(sp)
 1183              		.cfi_offset 1, -8
 1184              		.cfi_offset 8, -16
 1185 09a6 001B     		addi	s0,sp,432
 1186              		.cfi_def_cfa 8, 0
 165:sha256.c      **** 	
 166:sha256.c      **** 	BYTE text[INPUT_SIZE];
 167:sha256.c      **** 	BYTE buf[SHA256_BLOCK_SIZE];
 168:sha256.c      **** 	SHA256_CTX ctx;
 169:sha256.c      **** 	
 170:sha256.c      **** 	//input the string to be encrypted
 171:sha256.c      **** 	printf("Please input string: ");
 1187              		.loc 1 171 2
 1188 09a8 B7070000 		lui	a5,%hi(.LC0)
 1189 09ac 13850700 		addi	a0,a5,%lo(.LC0)
 1190 09b0 97000000 		call	printf
 1190      E7800000 
 172:sha256.c      **** 	scanf("%s",text);
 1191              		.loc 1 172 2
 1192 09b8 930784EE 		addi	a5,s0,-280
 1193 09bc BE85     		mv	a1,a5
 1194 09be B7070000 		lui	a5,%hi(.LC1)
 1195 09c2 13850700 		addi	a0,a5,%lo(.LC1)
 1196 09c6 97000000 		call	scanf
 1196      E7800000 
 173:sha256.c      **** 
 174:sha256.c      ****     //sha256
 175:sha256.c      **** 	sha256_init(&ctx);
 1197              		.loc 1 175 2
 1198 09ce 930784E5 		addi	a5,s0,-424
 1199 09d2 3E85     		mv	a0,a5
 1200 09d4 97000000 		call	sha256_init
 1200      E7800000 
 176:sha256.c      **** 	sha256_update(&ctx, text, strlen(text));
 1201              		.loc 1 176 2
 1202 09dc 930784EE 		addi	a5,s0,-280
 1203 09e0 3E85     		mv	a0,a5
 1204 09e2 97000000 		call	strlen
 1204      E7800000 
 1205 09ea AA86     		mv	a3,a0
 1206 09ec 130784EE 		addi	a4,s0,-280
 1207 09f0 930784E5 		addi	a5,s0,-424
 1208 09f4 3686     		mv	a2,a3
 1209 09f6 BA85     		mv	a1,a4
 1210 09f8 3E85     		mv	a0,a5
 1211 09fa 97000000 		call	sha256_update
 1211      E7800000 
 177:sha256.c      **** 	sha256_final(&ctx, buf);
 1212              		.loc 1 177 2
 1213 0a02 130784EC 		addi	a4,s0,-312
 1214 0a06 930784E5 		addi	a5,s0,-424
 1215 0a0a BA85     		mv	a1,a4
 1216 0a0c 3E85     		mv	a0,a5
GAS LISTING /tmp/ccUgdhPb.s 			page 26


 1217 0a0e 97000000 		call	sha256_final
 1217      E7800000 
 178:sha256.c      **** 
 179:sha256.c      **** 	//output SHA256 hash
 180:sha256.c      **** 	printf("hash hex: ");
 1218              		.loc 1 180 2
 1219 0a16 B7070000 		lui	a5,%hi(.LC2)
 1220 0a1a 13850700 		addi	a0,a5,%lo(.LC2)
 1221 0a1e 97000000 		call	printf
 1221      E7800000 
 1222              	.LBB2:
 181:sha256.c      **** 	for(int i = 0; i < SHA256_BLOCK_SIZE; i++){
 1223              		.loc 1 181 10
 1224 0a26 232604FE 		sw	zero,-20(s0)
 1225              		.loc 1 181 2
 1226 0a2a 3DA0     		j	.L23
 1227              	.L24:
 182:sha256.c      **** 		printf("%02x",buf[i]);
 1228              		.loc 1 182 20 discriminator 3
 1229 0a2c 8327C4FE 		lw	a5,-20(s0)
 1230 0a30 130704FF 		addi	a4,s0,-16
 1231 0a34 BA97     		add	a5,a4,a5
 1232 0a36 83C787ED 		lbu	a5,-296(a5)
 1233              		.loc 1 182 3 discriminator 3
 1234 0a3a 8127     		sext.w	a5,a5
 1235 0a3c BE85     		mv	a1,a5
 1236 0a3e B7070000 		lui	a5,%hi(.LC3)
 1237 0a42 13850700 		addi	a0,a5,%lo(.LC3)
 1238 0a46 97000000 		call	printf
 1238      E7800000 
 181:sha256.c      **** 	for(int i = 0; i < SHA256_BLOCK_SIZE; i++){
 1239              		.loc 1 181 41 discriminator 3
 1240 0a4e 8327C4FE 		lw	a5,-20(s0)
 1241 0a52 8527     		addiw	a5,a5,1
 1242 0a54 2326F4FE 		sw	a5,-20(s0)
 1243              	.L23:
 181:sha256.c      **** 	for(int i = 0; i < SHA256_BLOCK_SIZE; i++){
 1244              		.loc 1 181 2 discriminator 1
 1245 0a58 8327C4FE 		lw	a5,-20(s0)
 1246 0a5c 1B870700 		sext.w	a4,a5
 1247 0a60 FD47     		li	a5,31
 1248 0a62 E3D5E7FC 		ble	a4,a5,.L24
 1249              	.LBE2:
 183:sha256.c      **** 	}
 184:sha256.c      **** 	printf("\n");
 1250              		.loc 1 184 2
 1251 0a66 2945     		li	a0,10
 1252 0a68 97000000 		call	putchar
 1252      E7800000 
 185:sha256.c      **** 	
 186:sha256.c      **** 	return(0);
 1253              		.loc 1 186 8
 1254 0a70 8147     		li	a5,0
 187:sha256.c      **** }
 1255              		.loc 1 187 1
 1256 0a72 3E85     		mv	a0,a5
 1257 0a74 BA70     		ld	ra,424(sp)
GAS LISTING /tmp/ccUgdhPb.s 			page 27


 1258              		.cfi_restore 1
 1259 0a76 1A74     		ld	s0,416(sp)
 1260              		.cfi_restore 8
 1261              		.cfi_def_cfa 2, 432
 1262 0a78 5D61     		addi	sp,sp,432
 1263              		.cfi_def_cfa_offset 0
 1264 0a7a 8280     		jr	ra
 1265              		.cfi_endproc
 1266              	.LFE8:
 1267              		.size	main, .-main
 1268              	.Letext0:
 1269              		.file 2 "/opt/riscv/lib/gcc/riscv64-unknown-elf/10.1.0/include/stddef.h"